target datalayout = "e-m:e-p270:32:32-p271:32:32-p272:64:64-i64:64-i128:128-f80:128-n8:16:32:64-S128"
target triple = "x86_64-pc-linux-gnu"

%"struct.Luau::CodeGen::BuiltinImplResult" = type { i32, i32 }
%"struct.Luau::CodeGen::IrOp" = type { i32 }

; Function Attrs: mustprogress uwtable
define internal i32 @_ZN4Luau7CodeGenL17builtinLoadDoubleERNS0_9IrBuilderENS0_4IrOpE(ptr noundef nonnull align 8 dereferenceable(752) %0, i32 %1) #2 {
  %3 = alloca %"struct.Luau::CodeGen::IrOp", align 4
  %4 = alloca %"struct.Luau::CodeGen::IrOp", align 4
  %5 = alloca ptr, align 8
  %6 = alloca %"struct.Luau::CodeGen::IrOp", align 4
  %7 = getelementptr inbounds nuw %"struct.Luau::CodeGen::IrOp", ptr %4, i32 0, i32 0
  store i32 %1, ptr %7, align 4
  store ptr %0, ptr %5, align 8, !tbaa !20
  %8 = load i32, ptr %4, align 4
  %9 = and i32 %8, 15
  %10 = icmp eq i32 %9, 2
  br i1 %10, label %11, label %12

11:                                               ; preds = %2
  call void @llvm.memcpy.p0.p0.i64(ptr align 4 %3, ptr align 4 %4, i64 4, i1 false), !tbaa.struct !28
  br label %18

12:                                               ; preds = %2
  %13 = load ptr, ptr %5, align 8, !tbaa !20
  call void @llvm.memcpy.p0.p0.i64(ptr align 4 %6, ptr align 4 %4, i64 4, i1 false), !tbaa.struct !28
  %14 = getelementptr inbounds nuw %"struct.Luau::CodeGen::IrOp", ptr %6, i32 0, i32 0
  %15 = load i32, ptr %14, align 4
  %16 = call i32 @_ZN4Luau7CodeGen9IrBuilder4instENS0_5IrCmdENS0_4IrOpE(ptr noundef nonnull align 8 dereferenceable(752) %13, i8 noundef zeroext 3, i32 %15)
  %17 = getelementptr inbounds nuw %"struct.Luau::CodeGen::IrOp", ptr %3, i32 0, i32 0
  store i32 %16, ptr %17, align 4
  br label %18

18:                                               ; preds = %12, %11
  %19 = getelementptr inbounds nuw %"struct.Luau::CodeGen::IrOp", ptr %3, i32 0, i32 0
  %20 = load i32, ptr %19, align 4
  ret i32 %20
}

; Function Attrs: mustprogress nounwind uwtable
define linkonce_odr dso_local void @_ZN4Luau7CodeGen4IrOpC2Ev(ptr noundef nonnull align 4 dereferenceable(4) %0) unnamed_addr #1 comdat align 2 {
  %2 = alloca ptr, align 8
  store ptr %0, ptr %2, align 8, !tbaa !164
  %3 = load ptr, ptr %2, align 8
  %4 = load i32, ptr %3, align 4
  %5 = and i32 %4, -16
  %6 = or i32 %5, 0
  store i32 %6, ptr %3, align 4
  %7 = load i32, ptr %3, align 4
  %8 = and i32 %7, 15
  %9 = or i32 %8, 0
  store i32 %9, ptr %3, align 4
  ret void
}

; Function Attrs: mustprogress uwtable
define internal i64 @_ZN4Luau7CodeGenL27translateBuiltinBufferWriteERNS0_9IrBuilderEiiiNS0_4IrOpES3_iiNS0_5IrCmdEiS4_(ptr noundef nonnull align 8 dereferenceable(752) %0, i32 noundef %1, i32 noundef %2, i32 noundef %3, i32 %4, i32 %5, i32 noundef %6, i32 noundef %7, i8 noundef zeroext %8, i32 noundef %9, i8 noundef zeroext %10) #2 {
  %12 = alloca %"struct.Luau::CodeGen::BuiltinImplResult", align 4
  %13 = alloca %"struct.Luau::CodeGen::IrOp", align 4
  %14 = alloca %"struct.Luau::CodeGen::IrOp", align 4
  %15 = alloca ptr, align 8
  %16 = alloca i32, align 4
  %17 = alloca i32, align 4
  %18 = alloca i32, align 4
  %19 = alloca i32, align 4
  %20 = alloca i32, align 4
  %21 = alloca i8, align 1
  %22 = alloca i32, align 4
  %23 = alloca i8, align 1
  %24 = alloca %"struct.Luau::CodeGen::IrOp", align 4
  %25 = alloca %"struct.Luau::CodeGen::IrOp", align 4
  %26 = alloca %"struct.Luau::CodeGen::IrOp", align 4
  %27 = alloca %"struct.Luau::CodeGen::IrOp", align 4
  %28 = alloca %"struct.Luau::CodeGen::IrOp", align 4
  %29 = alloca %"struct.Luau::CodeGen::IrOp", align 4
  %30 = alloca %"struct.Luau::CodeGen::IrOp", align 4
  %31 = alloca %"struct.Luau::CodeGen::IrOp", align 4
  %32 = alloca %"struct.Luau::CodeGen::IrOp", align 4
  %33 = alloca %"struct.Luau::CodeGen::IrOp", align 4
  %34 = alloca %"struct.Luau::CodeGen::IrOp", align 4
  %35 = getelementptr inbounds nuw %"struct.Luau::CodeGen::IrOp", ptr %13, i32 0, i32 0
  store i32 %4, ptr %35, align 4
  %36 = getelementptr inbounds nuw %"struct.Luau::CodeGen::IrOp", ptr %14, i32 0, i32 0
  store i32 %5, ptr %36, align 4
  store ptr %0, ptr %15, align 8, !tbaa !20
  store i32 %1, ptr %16, align 4, !tbaa !22
  store i32 %2, ptr %17, align 4, !tbaa !22
  store i32 %3, ptr %18, align 4, !tbaa !22
  store i32 %6, ptr %19, align 4, !tbaa !22
  store i32 %7, ptr %20, align 4, !tbaa !22
  store i8 %8, ptr %21, align 1, !tbaa !32
  store i32 %9, ptr %22, align 4, !tbaa !22
  store i8 %10, ptr %23, align 1, !tbaa !32
  %37 = load i32, ptr %16, align 4, !tbaa !22
  %38 = icmp slt i32 %37, 3
  br i1 %38, label %42, label %39

39:                                               ; preds = %11
  %40 = load i32, ptr %19, align 4, !tbaa !22
  %41 = icmp sgt i32 %40, 0
  br i1 %41, label %42, label %45

42:                                               ; preds = %39, %11
  %43 = getelementptr inbounds nuw %"struct.Luau::CodeGen::BuiltinImplResult", ptr %12, i32 0, i32 0
  store i32 0, ptr %43, align 4, !tbaa !24
  %44 = getelementptr inbounds nuw %"struct.Luau::CodeGen::BuiltinImplResult", ptr %12, i32 0, i32 1
  store i32 -1, ptr %44, align 4, !tbaa !27
  br label %83

45:                                               ; preds = %39
  call void @llvm.lifetime.start.p0(i64 4, ptr %24) #11
  call void @_ZN4Luau7CodeGen4IrOpC2Ev(ptr noundef nonnull align 4 dereferenceable(4) %24)
  call void @llvm.lifetime.start.p0(i64 4, ptr %25) #11
  call void @_ZN4Luau7CodeGen4IrOpC2Ev(ptr noundef nonnull align 4 dereferenceable(4) %25)
  %46 = load ptr, ptr %15, align 8, !tbaa !20
  %47 = load i32, ptr %16, align 4, !tbaa !22
  %48 = load i32, ptr %18, align 4, !tbaa !22
  call void @llvm.memcpy.p0.p0.i64(ptr align 4 %26, ptr align 4 %13, i64 4, i1 false), !tbaa.struct !28
  call void @llvm.memcpy.p0.p0.i64(ptr align 4 %27, ptr align 4 %14, i64 4, i1 false), !tbaa.struct !28
  %49 = load i32, ptr %22, align 4, !tbaa !22
  %50 = load i32, ptr %20, align 4, !tbaa !22
  %51 = getelementptr inbounds nuw %"struct.Luau::CodeGen::IrOp", ptr %26, i32 0, i32 0
  %52 = load i32, ptr %51, align 4
  %53 = getelementptr inbounds nuw %"struct.Luau::CodeGen::IrOp", ptr %27, i32 0, i32 0
  %54 = load i32, ptr %53, align 4
  call void @_ZN4Luau7CodeGenL33translateBufferArgsAndCheckBoundsERNS0_9IrBuilderEiiNS0_4IrOpES3_iiRS3_S4_(ptr noundef nonnull align 8 dereferenceable(752) %46, i32 noundef %47, i32 noundef %48, i32 %52, i32 %54, i32 noundef %49, i32 noundef %50, ptr noundef nonnull align 4 dereferenceable(4) %24, ptr noundef nonnull align 4 dereferenceable(4) %25)
  call void @llvm.lifetime.start.p0(i64 4, ptr %28) #11
  %55 = load ptr, ptr %15, align 8, !tbaa !20
  call void @llvm.memcpy.p0.p0.i64(ptr align 4 %29, ptr align 4 %14, i64 4, i1 false), !tbaa.struct !28
  %56 = getelementptr inbounds nuw %"struct.Luau::CodeGen::IrOp", ptr %29, i32 0, i32 0
  %57 = load i32, ptr %56, align 4
  %58 = call i32 @_ZN4Luau7CodeGenL17builtinLoadDoubleERNS0_9IrBuilderENS0_4IrOpE(ptr noundef nonnull align 8 dereferenceable(752) %55, i32 %57)
  %59 = getelementptr inbounds nuw %"struct.Luau::CodeGen::IrOp", ptr %28, i32 0, i32 0
  store i32 %58, ptr %59, align 4
  %60 = load ptr, ptr %15, align 8, !tbaa !20
  %61 = load i8, ptr %21, align 1, !tbaa !32
  call void @llvm.memcpy.p0.p0.i64(ptr align 4 %30, ptr align 4 %24, i64 4, i1 false), !tbaa.struct !28
  call void @llvm.memcpy.p0.p0.i64(ptr align 4 %31, ptr align 4 %25, i64 4, i1 false), !tbaa.struct !28
  %62 = load i8, ptr %23, align 1, !tbaa !32
  %63 = icmp eq i8 %62, 0
  br i1 %63, label %64, label %65

64:                                               ; preds = %45
  call void @llvm.memcpy.p0.p0.i64(ptr align 4 %32, ptr align 4 %28, i64 4, i1 false), !tbaa.struct !28
  br label %72

65:                                               ; preds = %45
  %66 = load ptr, ptr %15, align 8, !tbaa !20
  %67 = load i8, ptr %23, align 1, !tbaa !32
  call void @llvm.memcpy.p0.p0.i64(ptr align 4 %33, ptr align 4 %28, i64 4, i1 false), !tbaa.struct !28
  %68 = getelementptr inbounds nuw %"struct.Luau::CodeGen::IrOp", ptr %33, i32 0, i32 0
  %69 = load i32, ptr %68, align 4
  %70 = call i32 @_ZN4Luau7CodeGen9IrBuilder4instENS0_5IrCmdENS0_4IrOpE(ptr noundef nonnull align 8 dereferenceable(752) %66, i8 noundef zeroext %67, i32 %69)
  %71 = getelementptr inbounds nuw %"struct.Luau::CodeGen::IrOp", ptr %32, i32 0, i32 0
  store i32 %70, ptr %71, align 4
  br label %72

72:                                               ; preds = %65, %64
  %73 = getelementptr inbounds nuw %"struct.Luau::CodeGen::IrOp", ptr %30, i32 0, i32 0
  %74 = load i32, ptr %73, align 4
  %75 = getelementptr inbounds nuw %"struct.Luau::CodeGen::IrOp", ptr %31, i32 0, i32 0
  %76 = load i32, ptr %75, align 4
  %77 = getelementptr inbounds nuw %"struct.Luau::CodeGen::IrOp", ptr %32, i32 0, i32 0
  %78 = load i32, ptr %77, align 4
  %79 = call i32 @_ZN4Luau7CodeGen9IrBuilder4instENS0_5IrCmdENS0_4IrOpES3_S3_(ptr noundef nonnull align 8 dereferenceable(752) %60, i8 noundef zeroext %61, i32 %74, i32 %76, i32 %78)
  %80 = getelementptr inbounds nuw %"struct.Luau::CodeGen::IrOp", ptr %34, i32 0, i32 0
  store i32 %79, ptr %80, align 4
  %81 = getelementptr inbounds nuw %"struct.Luau::CodeGen::BuiltinImplResult", ptr %12, i32 0, i32 0
  store i32 2, ptr %81, align 4, !tbaa !24
  %82 = getelementptr inbounds nuw %"struct.Luau::CodeGen::BuiltinImplResult", ptr %12, i32 0, i32 1
  store i32 0, ptr %82, align 4, !tbaa !27
  call void @llvm.lifetime.end.p0(i64 4, ptr %28) #11
  call void @llvm.lifetime.end.p0(i64 4, ptr %25) #11
  call void @llvm.lifetime.end.p0(i64 4, ptr %24) #11
  br label %83

83:                                               ; preds = %72, %42
  %84 = load i64, ptr %12, align 4
  ret i64 %84
}