; Function Attrs: mustprogress uwtable
define internal fastcc range(i64 -4294967296, 3) i64 @_ZN4Luau7CodeGenL27translateBuiltinBufferWriteERNS0_9IrBuilderEiiiNS0_4IrOpES3_iiNS0_5IrCmdEiS4_(ptr noundef nonnull align 8 dereferenceable(752) %0, i32 noundef range(i32 0, -1) %1, i32 noundef %2, i32 %3, i32 %4, i32 noundef %5, i32 noundef %6, i8 noundef zeroext range(i8 -119, -109) %7, i32 noundef range(i32 1, 9) %8, i8 noundef zeroext range(i8 0, 67) %9) unnamed_addr #0 {
  %11 = alloca %"struct.Luau::CodeGen::IrOp", align 4
  %12 = alloca %"struct.Luau::CodeGen::IrOp", align 4
  %13 = icmp slt i32 %1, 3
  %14 = icmp sgt i32 %5, 0
  %or.cond = or i1 %13, %14
  br i1 %or.cond, label %25, label %15

15:                                               ; preds = %10
  call void @llvm.lifetime.start.p0(i64 4, ptr nonnull %11) #5
  call void @llvm.lifetime.start.p0(i64 4, ptr nonnull %12) #5
  call fastcc void @_ZN4Luau7CodeGenL33translateBufferArgsAndCheckBoundsERNS0_9IrBuilderEiiNS0_4IrOpES3_iiRS3_S4_(ptr noundef nonnull align 8 dereferenceable(752) %0, i32 noundef %1, i32 noundef %2, i32 %3, i32 %4, i32 noundef %8, i32 noundef %6, ptr noundef nonnull align 4 dereferenceable(4) %11, ptr noundef nonnull align 4 dereferenceable(4) %12)
  %16 = and i32 %4, 15
  %17 = icmp eq i32 %16, 2
  br i1 %17, label %_ZN4Luau7CodeGenL17builtinLoadDoubleERNS0_9IrBuilderENS0_4IrOpE.exit, label %18

18:                                               ; preds = %15
  %19 = tail call i32 @_ZN4Luau7CodeGen9IrBuilder4instENS0_5IrCmdENS0_4IrOpE(ptr noundef nonnull align 8 dereferenceable(752) %0, i8 noundef zeroext 3, i32 %4)
  br label %_ZN4Luau7CodeGenL17builtinLoadDoubleERNS0_9IrBuilderENS0_4IrOpE.exit

_ZN4Luau7CodeGenL17builtinLoadDoubleERNS0_9IrBuilderENS0_4IrOpE.exit: ; preds = %15, %18
  %.sroa.03.0.i = phi i32 [ %19, %18 ], [ %4, %15 ]
  %.sroa.05.0.copyload = load i32, ptr %11, align 4, !tbaa !29
  %.sroa.04.0.copyload = load i32, ptr %12, align 4, !tbaa !29
  %20 = icmp eq i8 %9, 0
  br i1 %20, label %23, label %21

21:                                               ; preds = %_ZN4Luau7CodeGenL17builtinLoadDoubleERNS0_9IrBuilderENS0_4IrOpE.exit
  %22 = tail call i32 @_ZN4Luau7CodeGen9IrBuilder4instENS0_5IrCmdENS0_4IrOpE(ptr noundef nonnull align 8 dereferenceable(752) %0, i8 noundef zeroext %9, i32 %.sroa.03.0.i)
  br label %23

23:                                               ; preds = %_ZN4Luau7CodeGenL17builtinLoadDoubleERNS0_9IrBuilderENS0_4IrOpE.exit, %21
  %.sroa.03.0 = phi i32 [ %22, %21 ], [ %.sroa.03.0.i, %_ZN4Luau7CodeGenL17builtinLoadDoubleERNS0_9IrBuilderENS0_4IrOpE.exit ]
  %24 = tail call i32 @_ZN4Luau7CodeGen9IrBuilder4instENS0_5IrCmdENS0_4IrOpES3_S3_(ptr noundef nonnull align 8 dereferenceable(752) %0, i8 noundef zeroext %7, i32 %.sroa.05.0.copyload, i32 %.sroa.04.0.copyload, i32 %.sroa.03.0)
  call void @llvm.lifetime.end.p0(i64 4, ptr nonnull %12) #5
  call void @llvm.lifetime.end.p0(i64 4, ptr nonnull %11) #5
  br label %25

25:                                               ; preds = %10, %23
  %.sroa.025.0.insert.insert = phi i64 [ 2, %23 ], [ -4294967296, %10 ]
  ret i64 %.sroa.025.0.insert.insert
}